target datalayout = "e-m:e-p270:32:32-p271:32:32-p272:64:64-i64:64-i128:128-f80:128-n8:16:32:64-S128"
target triple = "x86_64-pc-linux-gnu"

%"class.icu_77::MaybeStackArray" = type <{ ptr, i32, i8, [40 x i8], [3 x i8] }>
%"class.icu_77::CharString" = type { %"class.icu_77::MaybeStackArray", i32, [4 x i8] }
%"class.std::basic_string_view" = type { i64, ptr }
%"class.icu_77::internal::LocalOpenPointer" = type { %"class.icu_77::LocalPointerBase" }
%"class.icu_77::LocalPointerBase" = type { ptr }

@.str.1 = private unnamed_addr constant [14 x i8] c"icudt77l-curr\00", align 1
@_ZL15CURRENCYPLURALS = internal constant [16 x i8] c"CurrencyPlurals\00", align 16
@.str.6 = private unnamed_addr constant [6 x i8] c"other\00", align 1
@_ZN6icu_7715MaybeStackArrayIcLi40EED1Ev = weak_odr unnamed_addr alias void (ptr), ptr @_ZN6icu_7715MaybeStackArrayIcLi40EED2Ev

; Function Attrs: mustprogress nounwind uwtable
define linkonce_odr void @_ZN6icu_7716LocalPointerBaseI15UResourceBundleEC2EPS1_(ptr noundef nonnull align 8 dereferenceable(8) %0, ptr noundef %1) unnamed_addr #0 comdat align 2 {
  %3 = alloca ptr, align 8
  %4 = alloca ptr, align 8
  store ptr %0, ptr %3, align 8, !tbaa !70
  store ptr %1, ptr %4, align 8, !tbaa !53
  %5 = load ptr, ptr %3, align 8
  %6 = getelementptr inbounds nuw %"class.icu_77::LocalPointerBase", ptr %5, i32 0, i32 0
  %7 = load ptr, ptr %4, align 8, !tbaa !53
  store ptr %7, ptr %6, align 8, !tbaa !72
  ret void
}

; Function Attrs: mustprogress nounwind uwtable
define weak_odr noundef ptr @_ZNK6icu_7715MaybeStackArrayIcLi40EE8getAliasEv(ptr noundef nonnull align 8 dereferenceable(53) %0) #0 comdat align 2 {
  %2 = alloca ptr, align 8
  store ptr %0, ptr %2, align 8, !tbaa !3
  %3 = load ptr, ptr %2, align 8
  %4 = getelementptr inbounds nuw %"class.icu_77::MaybeStackArray", ptr %3, i32 0, i32 0
  %5 = load ptr, ptr %4, align 8, !tbaa !8
  ret ptr %5
}

; Function Attrs: mustprogress nounwind uwtable
define linkonce_odr noundef i64 @_ZNSt11char_traitsIcE6lengthEPKc(ptr noundef %0) #0 comdat align 2 {
  %2 = alloca ptr, align 8
  store ptr %0, ptr %2, align 8, !tbaa !17
  %3 = load ptr, ptr %2, align 8, !tbaa !17
  %4 = call i64 @strlen(ptr noundef %3) #12
  ret i64 %4
}

; Function Attrs: mustprogress nounwind uwtable
define linkonce_odr void @_ZN6icu_7710CharStringD2Ev(ptr noundef nonnull align 8 dereferenceable(60) %0) unnamed_addr #0 comdat align 2 {
  %2 = alloca ptr, align 8
  store ptr %0, ptr %2, align 8, !tbaa !45
  %3 = load ptr, ptr %2, align 8
  %4 = getelementptr inbounds nuw %"class.icu_77::CharString", ptr %3, i32 0, i32 0
  call void @_ZN6icu_7715MaybeStackArrayIcLi40EED1Ev(ptr noundef nonnull align 8 dereferenceable(53) %4) #12
  ret void
}

; Function Attrs: inlinehint mustprogress nounwind uwtable
define internal noundef signext i8 @_ZL9U_SUCCESS10UErrorCode(i32 noundef %0) #2 {
  %2 = alloca i32, align 4
  store i32 %0, ptr %2, align 4, !tbaa !15
  %3 = load i32, ptr %2, align 4, !tbaa !15
  %4 = icmp sle i32 %3, 0
  %5 = zext i1 %4 to i8
  ret i8 %5
}

; Function Attrs: mustprogress nounwind uwtable
define linkonce_odr noundef ptr @_ZNK6icu_7716LocalPointerBaseI15UResourceBundleE8getAliasEv(ptr noundef nonnull align 8 dereferenceable(8) %0) #0 comdat align 2 {
  %2 = alloca ptr, align 8
  store ptr %0, ptr %2, align 8, !tbaa !70
  %3 = load ptr, ptr %2, align 8
  %4 = getelementptr inbounds nuw %"class.icu_77::LocalPointerBase", ptr %3, i32 0, i32 0
  %5 = load ptr, ptr %4, align 8, !tbaa !72
  ret ptr %5
}

; Function Attrs: mustprogress uwtable
define linkonce_odr void @_ZN6icu_778internal16LocalOpenPointerI15UResourceBundleXadL_Z13ures_close_77EEEC2EPS2_(ptr noundef nonnull align 8 dereferenceable(8) %0, ptr noundef %1) unnamed_addr #1 comdat align 2 {
  %3 = alloca ptr, align 8
  %4 = alloca ptr, align 8
  store ptr %0, ptr %3, align 8, !tbaa !68
  store ptr %1, ptr %4, align 8, !tbaa !53
  %5 = load ptr, ptr %3, align 8
  %6 = load ptr, ptr %4, align 8, !tbaa !53
  call void @_ZN6icu_7716LocalPointerBaseI15UResourceBundleEC2EPS1_(ptr noundef nonnull align 8 dereferenceable(8) %5, ptr noundef %6)
  ret void
}

; Function Attrs: mustprogress nounwind uwtable
define linkonce_odr noundef ptr @_ZN6icu_7710CharString4dataEv(ptr noundef nonnull align 8 dereferenceable(60) %0) #0 comdat align 2 {
  %2 = alloca ptr, align 8
  store ptr %0, ptr %2, align 8, !tbaa !45
  %3 = load ptr, ptr %2, align 8
  %4 = getelementptr inbounds nuw %"class.icu_77::CharString", ptr %3, i32 0, i32 0
  %5 = call noundef ptr @_ZNK6icu_7715MaybeStackArrayIcLi40EE8getAliasEv(ptr noundef nonnull align 8 dereferenceable(53) %4)
  ret ptr %5
}

; Function Attrs: inlinehint mustprogress uwtable
define internal noundef ptr @_ZL15myUCharsToCharsPcPKDs(ptr noundef %0, ptr noundef %1) #3 {
  %3 = alloca ptr, align 8
  %4 = alloca ptr, align 8
  store ptr %0, ptr %3, align 8, !tbaa !17
  store ptr %1, ptr %4, align 8, !tbaa !39
  %5 = load ptr, ptr %4, align 8, !tbaa !39
  %6 = load ptr, ptr %3, align 8, !tbaa !17
  call void @u_UCharsToChars_77(ptr noundef %5, ptr noundef %6, i32 noundef 3)
  %7 = load ptr, ptr %3, align 8, !tbaa !17
  %8 = getelementptr inbounds i8, ptr %7, i64 3
  store i8 0, ptr %8, align 1, !tbaa !47
  %9 = load ptr, ptr %3, align 8, !tbaa !17
  ret ptr %9
}

; Function Attrs: mustprogress nounwind uwtable
define linkonce_odr void @_ZNSt17basic_string_viewIcSt11char_traitsIcEEC2EPKc(ptr noundef nonnull align 8 dereferenceable(16) %0, ptr noundef nonnull %1) unnamed_addr #0 comdat align 2 personality ptr @__gxx_personality_v0 {
  %3 = alloca ptr, align 8
  %4 = alloca ptr, align 8
  store ptr %0, ptr %3, align 8, !tbaa !60
  store ptr %1, ptr %4, align 8, !tbaa !17
  %5 = load ptr, ptr %3, align 8
  %6 = getelementptr inbounds nuw %"class.std::basic_string_view", ptr %5, i32 0, i32 0
  %7 = load ptr, ptr %4, align 8, !tbaa !17
  %8 = invoke noundef i64 @_ZNSt11char_traitsIcE6lengthEPKc(ptr noundef %7)
          to label %9 unwind label %12

9:                                                ; preds = %2
  store i64 %8, ptr %6, align 8, !tbaa !62
  %10 = getelementptr inbounds nuw %"class.std::basic_string_view", ptr %5, i32 0, i32 1
  %11 = load ptr, ptr %4, align 8, !tbaa !17
  store ptr %11, ptr %10, align 8, !tbaa !64
  ret void

12:                                               ; preds = %2
  %13 = landingpad { ptr, i32 }
          catch ptr null
  %14 = extractvalue { ptr, i32 } %13, 0
  call void @__clang_call_terminate(ptr %14) #14
  unreachable
}

; Function Attrs: inlinehint mustprogress nounwind uwtable
define internal noundef signext i8 @_ZL9U_FAILURE10UErrorCode(i32 noundef %0) #2 {
  %2 = alloca i32, align 4
  store i32 %0, ptr %2, align 4, !tbaa !15
  %3 = load i32, ptr %2, align 4, !tbaa !15
  %4 = icmp sgt i32 %3, 0
  %5 = zext i1 %4 to i8
  ret i8 %5
}

; Function Attrs: mustprogress uwtable
define ptr @ucurr_getPluralName_77(ptr noundef %0, ptr noundef %1, ptr noundef %2, ptr noundef %3, ptr noundef %4, ptr noundef %5) #1 personality ptr @__gxx_personality_v0 {
  %7 = alloca ptr, align 8
  %8 = alloca ptr, align 8
  %9 = alloca ptr, align 8
  %10 = alloca ptr, align 8
  %11 = alloca ptr, align 8
  %12 = alloca ptr, align 8
  %13 = alloca ptr, align 8
  %14 = alloca i32, align 4
  %15 = alloca %"class.icu_77::CharString", align 8
  %16 = alloca %"class.std::basic_string_view", align 8
  %17 = alloca ptr, align 8
  %18 = alloca i32, align 4
  %19 = alloca i32, align 4
  %20 = alloca [4 x i8], align 1
  %21 = alloca ptr, align 8
  %22 = alloca ptr, align 8
  %23 = alloca %"class.icu_77::internal::LocalOpenPointer", align 8
  store ptr %0, ptr %8, align 8, !tbaa !39
  store ptr %1, ptr %9, align 8, !tbaa !17
  store ptr %2, ptr %10, align 8, !tbaa !17
  store ptr %3, ptr %11, align 8, !tbaa !17
  store ptr %4, ptr %12, align 8, !tbaa !20
  store ptr %5, ptr %13, align 8, !tbaa !22
  %24 = load ptr, ptr %13, align 8, !tbaa !22
  %25 = load i32, ptr %24, align 4, !tbaa !15
  %26 = call noundef signext i8 @_ZL9U_FAILURE10UErrorCode(i32 noundef %25)
  %27 = icmp ne i8 %26, 0
  br i1 %27, label %28, label %29

28:                                               ; preds = %6
  store ptr null, ptr %7, align 8
  br label %147

29:                                               ; preds = %6
  call void @llvm.lifetime.start.p0(i64 4, ptr %14) #12
  store i32 0, ptr %14, align 4, !tbaa !15
  %30 = load ptr, ptr %9, align 8, !tbaa !17
  %31 = icmp eq ptr %30, null
  br i1 %31, label %32, label %34

32:                                               ; preds = %29
  %33 = call ptr @uloc_getDefault_77()
  store ptr %33, ptr %9, align 8, !tbaa !17
  br label %34

34:                                               ; preds = %32, %29
  call void @llvm.lifetime.start.p0(i64 64, ptr %15) #12
  %35 = load ptr, ptr %9, align 8, !tbaa !17
  call void @_ZNSt17basic_string_viewIcSt11char_traitsIcEEC2EPKc(ptr noundef nonnull align 8 dereferenceable(16) %16, ptr noundef %35) #12
  %36 = getelementptr inbounds nuw { i64, ptr }, ptr %16, i32 0, i32 0
  %37 = load i64, ptr %36, align 8
  %38 = getelementptr inbounds nuw { i64, ptr }, ptr %16, i32 0, i32 1
  %39 = load ptr, ptr %38, align 8
  call void @_Z18ulocimp_getName_77St17basic_string_viewIcSt11char_traitsIcEER10UErrorCode(ptr dead_on_unwind writable sret(%"class.icu_77::CharString") align 8 %15, i64 %37, ptr %39, ptr noundef nonnull align 4 dereferenceable(4) %14)
  %40 = load i32, ptr %14, align 4, !tbaa !15
  %41 = invoke noundef signext i8 @_ZL9U_FAILURE10UErrorCode(i32 noundef %40)
          to label %42 unwind label %46

42:                                               ; preds = %34
  %43 = icmp ne i8 %41, 0
  br i1 %43, label %44, label %50

44:                                               ; preds = %42
  %45 = load ptr, ptr %13, align 8, !tbaa !22
  store i32 1, ptr %45, align 4, !tbaa !15
  store ptr null, ptr %7, align 8
  store i32 1, ptr %19, align 4
  br label %145

46:                                               ; preds = %34
  %47 = landingpad { ptr, i32 }
          cleanup
  %48 = extractvalue { ptr, i32 } %47, 0
  store ptr %48, ptr %17, align 8
  %49 = extractvalue { ptr, i32 } %47, 1
  store i32 %49, ptr %18, align 4
  br label %146

50:                                               ; preds = %42
  call void @llvm.lifetime.start.p0(i64 4, ptr %20) #12
  %51 = getelementptr inbounds [4 x i8], ptr %20, i64 0, i64 0
  %52 = load ptr, ptr %8, align 8, !tbaa !39
  %53 = invoke noundef ptr @_ZL15myUCharsToCharsPcPKDs(ptr noundef %51, ptr noundef %52)
          to label %54 unwind label %97

54:                                               ; preds = %50
  call void @llvm.lifetime.start.p0(i64 8, ptr %21) #12
  store ptr null, ptr %21, align 8, !tbaa !39
  store i32 0, ptr %14, align 4, !tbaa !15
  call void @llvm.lifetime.start.p0(i64 8, ptr %22) #12
  %55 = invoke noundef ptr @_ZN6icu_7710CharString4dataEv(ptr noundef nonnull align 8 dereferenceable(60) %15)
          to label %56 unwind label %101

56:                                               ; preds = %54
  %57 = invoke ptr @ures_open_77(ptr noundef @.str.1, ptr noundef %55, ptr noundef %14)
          to label %58 unwind label %101

58:                                               ; preds = %56
  store ptr %57, ptr %22, align 8, !tbaa !53
  %59 = load ptr, ptr %22, align 8, !tbaa !53
  %60 = load ptr, ptr %22, align 8, !tbaa !53
  %61 = invoke ptr @ures_getByKey_77(ptr noundef %59, ptr noundef @_ZL15CURRENCYPLURALS, ptr noundef %60, ptr noundef %14)
          to label %62 unwind label %101

62:                                               ; preds = %58
  store ptr %61, ptr %22, align 8, !tbaa !53
  call void @llvm.lifetime.start.p0(i64 8, ptr %23) #12
  %63 = load ptr, ptr %22, align 8, !tbaa !53
  %64 = getelementptr inbounds [4 x i8], ptr %20, i64 0, i64 0
  %65 = load ptr, ptr %22, align 8, !tbaa !53
  %66 = invoke ptr @ures_getByKeyWithFallback_77(ptr noundef %63, ptr noundef %64, ptr noundef %65, ptr noundef %14)
          to label %67 unwind label %105

67:                                               ; preds = %62
  invoke void @_ZN6icu_778internal16LocalOpenPointerI15UResourceBundleXadL_Z13ures_close_77EEEC2EPS2_(ptr noundef nonnull align 8 dereferenceable(8) %23, ptr noundef %66)
          to label %68 unwind label %105

68:                                               ; preds = %67
  %69 = invoke noundef ptr @_ZNK6icu_7716LocalPointerBaseI15UResourceBundleE8getAliasEv(ptr noundef nonnull align 8 dereferenceable(8) %23)
          to label %70 unwind label %109

70:                                               ; preds = %68
  %71 = load ptr, ptr %11, align 8, !tbaa !17
  %72 = load ptr, ptr %12, align 8, !tbaa !20
  %73 = invoke ptr @ures_getStringByKeyWithFallback_77(ptr noundef %69, ptr noundef %71, ptr noundef %72, ptr noundef %14)
          to label %74 unwind label %109

74:                                               ; preds = %70
  store ptr %73, ptr %21, align 8, !tbaa !39
  %75 = load i32, ptr %14, align 4, !tbaa !15
  %76 = invoke noundef signext i8 @_ZL9U_FAILURE10UErrorCode(i32 noundef %75)
          to label %77 unwind label %109

77:                                               ; preds = %74
  %78 = icmp ne i8 %76, 0
  br i1 %78, label %79, label %114

79:                                               ; preds = %77
  store i32 0, ptr %14, align 4, !tbaa !15
  %80 = invoke noundef ptr @_ZNK6icu_7716LocalPointerBaseI15UResourceBundleE8getAliasEv(ptr noundef nonnull align 8 dereferenceable(8) %23)
          to label %81 unwind label %109

81:                                               ; preds = %79
  %82 = load ptr, ptr %12, align 8, !tbaa !20
  %83 = invoke ptr @ures_getStringByKeyWithFallback_77(ptr noundef %80, ptr noundef @.str.6, ptr noundef %82, ptr noundef %14)
          to label %84 unwind label %109

84:                                               ; preds = %81
  store ptr %83, ptr %21, align 8, !tbaa !39
  %85 = load i32, ptr %14, align 4, !tbaa !15
  %86 = invoke noundef signext i8 @_ZL9U_FAILURE10UErrorCode(i32 noundef %85)
          to label %87 unwind label %109

87:                                               ; preds = %84
  %88 = icmp ne i8 %86, 0
  br i1 %88, label %89, label %113

89:                                               ; preds = %87
  %90 = load ptr, ptr %8, align 8, !tbaa !39
  %91 = load ptr, ptr %9, align 8, !tbaa !17
  %92 = load ptr, ptr %10, align 8, !tbaa !17
  %93 = load ptr, ptr %12, align 8, !tbaa !20
  %94 = load ptr, ptr %13, align 8, !tbaa !22
  %95 = invoke ptr @ucurr_getName_77(ptr noundef %90, ptr noundef %91, i32 noundef 1, ptr noundef %92, ptr noundef %93, ptr noundef %94)
          to label %96 unwind label %109

96:                                               ; preds = %89
  store ptr %95, ptr %7, align 8
  store i32 1, ptr %19, align 4
  br label %141

97:                                               ; preds = %50
  %98 = landingpad { ptr, i32 }
          cleanup
  %99 = extractvalue { ptr, i32 } %98, 0
  store ptr %99, ptr %17, align 8
  %100 = extractvalue { ptr, i32 } %98, 1
  store i32 %100, ptr %18, align 4
  br label %144

101:                                              ; preds = %58, %56, %54
  %102 = landingpad { ptr, i32 }
          cleanup
  %103 = extractvalue { ptr, i32 } %102, 0
  store ptr %103, ptr %17, align 8
  %104 = extractvalue { ptr, i32 } %102, 1
  store i32 %104, ptr %18, align 4
  br label %143

105:                                              ; preds = %67, %62
  %106 = landingpad { ptr, i32 }
          cleanup
  %107 = extractvalue { ptr, i32 } %106, 0
  store ptr %107, ptr %17, align 8
  %108 = extractvalue { ptr, i32 } %106, 1
  store i32 %108, ptr %18, align 4
  br label %142

109:                                              ; preds = %134, %114, %89, %84, %81, %79, %74, %70, %68
  %110 = landingpad { ptr, i32 }
          cleanup
  %111 = extractvalue { ptr, i32 } %110, 0
  store ptr %111, ptr %17, align 8
  %112 = extractvalue { ptr, i32 } %110, 1
  store i32 %112, ptr %18, align 4
  call void @_ZN6icu_778internal16LocalOpenPointerI15UResourceBundleXadL_Z13ures_close_77EEED2Ev(ptr noundef nonnull align 8 dereferenceable(8) %23) #12
  br label %142

113:                                              ; preds = %87
  br label %114

114:                                              ; preds = %113, %77
  %115 = load i32, ptr %14, align 4, !tbaa !15
  %116 = invoke noundef signext i8 @_ZL9U_SUCCESS10UErrorCode(i32 noundef %115)
          to label %117 unwind label %109

117:                                              ; preds = %114
  %118 = icmp ne i8 %116, 0
  br i1 %118, label %119, label %134

119:                                              ; preds = %117
  %120 = load i32, ptr %14, align 4, !tbaa !15
  %121 = icmp eq i32 %120, -127
  br i1 %121, label %129, label %122

122:                                              ; preds = %119
  %123 = load i32, ptr %14, align 4, !tbaa !15
  %124 = icmp eq i32 %123, -128
  br i1 %124, label %125, label %132

125:                                              ; preds = %122
  %126 = load ptr, ptr %13, align 8, !tbaa !22
  %127 = load i32, ptr %126, align 4, !tbaa !15
  %128 = icmp ne i32 %127, -127
  br i1 %128, label %129, label %132

129:                                              ; preds = %125, %119
  %130 = load i32, ptr %14, align 4, !tbaa !15
  %131 = load ptr, ptr %13, align 8, !tbaa !22
  store i32 %130, ptr %131, align 4, !tbaa !15
  br label %132

132:                                              ; preds = %129, %125, %122
  %133 = load ptr, ptr %21, align 8, !tbaa !39
  store ptr %133, ptr %7, align 8
  store i32 1, ptr %19, align 4
  br label %141

134:                                              ; preds = %117
  %135 = load ptr, ptr %8, align 8, !tbaa !39
  %136 = invoke i32 @u_strlen_77(ptr noundef %135)
          to label %137 unwind label %109

137:                                              ; preds = %134
  %138 = load ptr, ptr %12, align 8, !tbaa !20
  store i32 %136, ptr %138, align 4, !tbaa !14
  %139 = load ptr, ptr %13, align 8, !tbaa !22
  store i32 -127, ptr %139, align 4, !tbaa !15
  %140 = load ptr, ptr %8, align 8, !tbaa !39
  store ptr %140, ptr %7, align 8
  store i32 1, ptr %19, align 4
  br label %141

141:                                              ; preds = %137, %132, %96
  call void @_ZN6icu_778internal16LocalOpenPointerI15UResourceBundleXadL_Z13ures_close_77EEED2Ev(ptr noundef nonnull align 8 dereferenceable(8) %23) #12
  call void @llvm.lifetime.end.p0(i64 8, ptr %23) #12
  call void @llvm.lifetime.end.p0(i64 8, ptr %22) #12
  call void @llvm.lifetime.end.p0(i64 8, ptr %21) #12
  call void @llvm.lifetime.end.p0(i64 4, ptr %20) #12
  br label %145

142:                                              ; preds = %109, %105
  call void @llvm.lifetime.end.p0(i64 8, ptr %23) #12
  br label %143

143:                                              ; preds = %142, %101
  call void @llvm.lifetime.end.p0(i64 8, ptr %22) #12
  call void @llvm.lifetime.end.p0(i64 8, ptr %21) #12
  br label %144

144:                                              ; preds = %143, %97
  call void @llvm.lifetime.end.p0(i64 4, ptr %20) #12
  br label %146

145:                                              ; preds = %141, %44
  call void @_ZN6icu_7710CharStringD2Ev(ptr noundef nonnull align 8 dereferenceable(60) %15) #12
  call void @llvm.lifetime.end.p0(i64 64, ptr %15) #12
  call void @llvm.lifetime.end.p0(i64 4, ptr %14) #12
  br label %147

146:                                              ; preds = %144, %46
  call void @_ZN6icu_7710CharStringD2Ev(ptr noundef nonnull align 8 dereferenceable(60) %15) #12
  call void @llvm.lifetime.end.p0(i64 64, ptr %15) #12
  call void @llvm.lifetime.end.p0(i64 4, ptr %14) #12
  br label %149

147:                                              ; preds = %145, %28
  %148 = load ptr, ptr %7, align 8
  ret ptr %148

149:                                              ; preds = %146
  %150 = load ptr, ptr %17, align 8
  %151 = load i32, ptr %18, align 4
  %152 = insertvalue { ptr, i32 } poison, ptr %150, 0
  %153 = insertvalue { ptr, i32 } %152, i32 %151, 1
  resume { ptr, i32 } %153
}