; Function Attrs: mustprogress uwtable
define ptr @ucurr_getPluralName_77(ptr noundef %0, ptr noundef %1, ptr noundef %2, ptr noundef %3, ptr noundef %4, ptr noundef captures(none) %5) local_unnamed_addr #1 personality ptr @__gxx_personality_v0 {
  %7 = alloca i32, align 4
  %8 = alloca %"class.icu_77::CharString", align 8
  %9 = alloca [4 x i8], align 1
  %10 = alloca %"class.icu_77::internal::LocalOpenPointer", align 8
  %11 = load i32, ptr %5, align 4, !tbaa !13
  %12 = icmp slt i32 %11, 1
  br i1 %12, label %13, label %64

13:                                               ; preds = %6
  call void @llvm.lifetime.start.p0(i64 4, ptr nonnull %7) #20
  store i32 0, ptr %7, align 4, !tbaa !13
  %14 = icmp eq ptr %1, null
  br i1 %14, label %15, label %17

15:                                               ; preds = %13
  %16 = tail call ptr @uloc_getDefault_77()
  br label %17

17:                                               ; preds = %15, %13
  %.033 = phi ptr [ %16, %15 ], [ %1, %13 ]
  call void @llvm.lifetime.start.p0(i64 64, ptr nonnull %8) #20
  %18 = tail call noundef i64 @strlen(ptr noundef nonnull dereferenceable(1) %.033) #20
  call void @_Z18ulocimp_getName_77St17basic_string_viewIcSt11char_traitsIcEER10UErrorCode(ptr dead_on_unwind nonnull writable sret(%"class.icu_77::CharString") align 8 %8, i64 %18, ptr nonnull %.033, ptr noundef nonnull align 4 dereferenceable(4) %7)
  %19 = load i32, ptr %7, align 4, !tbaa !13
  %20 = icmp slt i32 %19, 1
  br i1 %20, label %22, label %21

21:                                               ; preds = %17
  store i32 1, ptr %5, align 4, !tbaa !13
  br label %63

22:                                               ; preds = %17
  call void @llvm.lifetime.start.p0(i64 4, ptr nonnull %9) #20
  invoke void @u_UCharsToChars_77(ptr noundef %0, ptr noundef nonnull %9, i32 noundef 3)
          to label %23 unwind label %43

23:                                               ; preds = %22
  %24 = getelementptr inbounds nuw i8, ptr %9, i64 3
  store i8 0, ptr %24, align 1, !tbaa !27
  store i32 0, ptr %7, align 4, !tbaa !13
  %25 = load ptr, ptr %8, align 8, !tbaa !3
  %26 = invoke ptr @ures_open_77(ptr noundef nonnull @.str.1, ptr noundef %25, ptr noundef nonnull %7)
          to label %27 unwind label %45

27:                                               ; preds = %23
  %28 = invoke ptr @ures_getByKey_77(ptr noundef %26, ptr noundef nonnull @_ZL15CURRENCYPLURALS, ptr noundef %26, ptr noundef nonnull %7)
          to label %29 unwind label %45

29:                                               ; preds = %27
  call void @llvm.lifetime.start.p0(i64 8, ptr nonnull %10) #20
  %30 = invoke ptr @ures_getByKeyWithFallback_77(ptr noundef %28, ptr noundef nonnull %9, ptr noundef %28, ptr noundef nonnull %7)
          to label %31 unwind label %47

31:                                               ; preds = %29
  store ptr %30, ptr %10, align 8, !tbaa !39
  %32 = invoke ptr @ures_getStringByKeyWithFallback_77(ptr noundef %30, ptr noundef %3, ptr noundef %4, ptr noundef nonnull %7)
          to label %33 unwind label %49

33:                                               ; preds = %31
  %34 = load i32, ptr %7, align 4, !tbaa !13
  %35 = icmp slt i32 %34, 1
  br i1 %35, label %51, label %36

36:                                               ; preds = %33
  store i32 0, ptr %7, align 4, !tbaa !13
  %37 = invoke ptr @ures_getStringByKeyWithFallback_77(ptr noundef %30, ptr noundef nonnull @.str.6, ptr noundef %4, ptr noundef nonnull %7)
          to label %38 unwind label %49

38:                                               ; preds = %36
  %39 = load i32, ptr %7, align 4, !tbaa !13
  %40 = icmp slt i32 %39, 1
  br i1 %40, label %51, label %41

41:                                               ; preds = %38
  %42 = invoke ptr @ucurr_getName_77(ptr noundef %0, ptr noundef nonnull %.033, i32 noundef 1, ptr noundef %2, ptr noundef %4, ptr noundef nonnull %5)
          to label %56 unwind label %49

43:                                               ; preds = %22
  %44 = landingpad { ptr, i32 }
          cleanup
  br label %62

45:                                               ; preds = %27, %23
  %46 = landingpad { ptr, i32 }
          cleanup
  br label %62

47:                                               ; preds = %29
  %48 = landingpad { ptr, i32 }
          cleanup
  br label %61

49:                                               ; preds = %41, %36, %31
  %50 = landingpad { ptr, i32 }
          cleanup
  call void @_ZN6icu_778internal16LocalOpenPointerI15UResourceBundleXadL_Z13ures_close_77EEED2Ev(ptr noundef nonnull align 8 dereferenceable(8) %10) #20
  br label %61

51:                                               ; preds = %33, %38
  %52 = phi i32 [ %39, %38 ], [ %34, %33 ]
  %.0 = phi ptr [ %37, %38 ], [ %32, %33 ]
  switch i32 %52, label %56 [
    i32 -127, label %55
    i32 -128, label %53
  ]

53:                                               ; preds = %51
  %54 = load i32, ptr %5, align 4, !tbaa !13
  %.not40 = icmp eq i32 %54, -127
  br i1 %.not40, label %56, label %55

55:                                               ; preds = %51, %53
  store i32 %52, ptr %5, align 4, !tbaa !13
  br label %56

56:                                               ; preds = %53, %55, %51, %41
  %.232 = phi ptr [ %42, %41 ], [ %.0, %51 ], [ %.0, %55 ], [ %.0, %53 ]
  %.not.i = icmp eq ptr %30, null
  br i1 %.not.i, label %_ZN6icu_778internal16LocalOpenPointerI15UResourceBundleXadL_Z13ures_close_77EEED2Ev.exit, label %57

57:                                               ; preds = %56
  invoke void @ures_close_77(ptr noundef nonnull %30)
          to label %_ZN6icu_778internal16LocalOpenPointerI15UResourceBundleXadL_Z13ures_close_77EEED2Ev.exit unwind label %58

58:                                               ; preds = %57
  %59 = landingpad { ptr, i32 }
          catch ptr null
  %60 = extractvalue { ptr, i32 } %59, 0
  call void @__clang_call_terminate(ptr %60) #22
  unreachable

_ZN6icu_778internal16LocalOpenPointerI15UResourceBundleXadL_Z13ures_close_77EEED2Ev.exit: ; preds = %56, %57
  call void @llvm.lifetime.end.p0(i64 8, ptr nonnull %10) #20
  call void @llvm.lifetime.end.p0(i64 4, ptr nonnull %9) #20
  br label %63

61:                                               ; preds = %49, %47
  %.pn = phi { ptr, i32 } [ %50, %49 ], [ %48, %47 ]
  call void @llvm.lifetime.end.p0(i64 8, ptr nonnull %10) #20
  br label %62

62:                                               ; preds = %45, %61, %43
  %.pn.pn.pn = phi { ptr, i32 } [ %44, %43 ], [ %.pn, %61 ], [ %46, %45 ]
  call void @llvm.lifetime.end.p0(i64 4, ptr nonnull %9) #20
  call void @_ZN6icu_7715MaybeStackArrayIcLi40EED1Ev(ptr noundef nonnull align 8 dereferenceable(60) %8) #20
  call void @llvm.lifetime.end.p0(i64 64, ptr nonnull %8) #20
  call void @llvm.lifetime.end.p0(i64 4, ptr nonnull %7) #20
  resume { ptr, i32 } %.pn.pn.pn

63:                                               ; preds = %_ZN6icu_778internal16LocalOpenPointerI15UResourceBundleXadL_Z13ures_close_77EEED2Ev.exit, %21
  %.131 = phi ptr [ null, %21 ], [ %.232, %_ZN6icu_778internal16LocalOpenPointerI15UResourceBundleXadL_Z13ures_close_77EEED2Ev.exit ]
  call void @_ZN6icu_7715MaybeStackArrayIcLi40EED1Ev(ptr noundef nonnull align 8 dereferenceable(60) %8) #20
  call void @llvm.lifetime.end.p0(i64 64, ptr nonnull %8) #20
  call void @llvm.lifetime.end.p0(i64 4, ptr nonnull %7) #20
  br label %64

64:                                               ; preds = %6, %63
  %.030 = phi ptr [ %.131, %63 ], [ null, %6 ]
  ret ptr %.030
}